target datalayout = "e-m:e-p270:32:32-p271:32:32-p272:64:64-i64:64-i128:128-f80:128-n8:16:32:64-S128"
target triple = "x86_64-pc-linux-gnu"

%struct._wmem_tree_t = type { ptr, ptr, ptr, i32, i32, ptr }
%struct._wmem_tree_node_t = type { ptr, ptr, ptr, ptr, ptr, i32, i8, i8 }

; Function Attrs: null_pointer_is_valid sspstrong uwtable
define internal ptr @wmem_tree_lookup(ptr noundef %0, ptr noundef %1, ptr noundef %2) #0 {
  %4 = alloca ptr, align 8
  %5 = alloca ptr, align 8
  %6 = alloca ptr, align 8
  %7 = alloca ptr, align 8
  %8 = alloca ptr, align 8
  %9 = alloca i32, align 4
  %10 = alloca i32, align 4
  store ptr %0, ptr %5, align 8
  store ptr %1, ptr %6, align 8
  store ptr %2, ptr %7, align 8
  call void @llvm.lifetime.start.p0(i64 8, ptr %8) #6
  %11 = load ptr, ptr %5, align 8
  %12 = icmp eq ptr %11, null
  br i1 %12, label %16, label %13

13:                                               ; preds = %3
  %14 = load ptr, ptr %6, align 8
  %15 = icmp eq ptr %14, null
  br i1 %15, label %16, label %17

16:                                               ; preds = %13, %3
  store ptr null, ptr %4, align 8
  store i32 1, ptr %9, align 4
  br label %58

17:                                               ; preds = %13
  %18 = load ptr, ptr %5, align 8
  %19 = getelementptr inbounds nuw %struct._wmem_tree_t, ptr %18, i32 0, i32 2
  %20 = load ptr, ptr %19, align 8
  store ptr %20, ptr %8, align 8
  br label %21

21:                                               ; preds = %56, %17
  %22 = load ptr, ptr %8, align 8
  %23 = icmp ne ptr %22, null
  br i1 %23, label %24, label %57

24:                                               ; preds = %21
  call void @llvm.lifetime.start.p0(i64 4, ptr %10) #6
  %25 = load ptr, ptr %7, align 8
  %26 = load ptr, ptr %6, align 8
  %27 = load ptr, ptr %8, align 8
  %28 = getelementptr inbounds nuw %struct._wmem_tree_node_t, ptr %27, i32 0, i32 3
  %29 = load ptr, ptr %28, align 8
  %30 = call i32 %25(ptr noundef %26, ptr noundef %29)
  store i32 %30, ptr %10, align 4
  %31 = load i32, ptr %10, align 4
  %32 = icmp eq i32 %31, 0
  br i1 %32, label %33, label %37

33:                                               ; preds = %24
  %34 = load ptr, ptr %8, align 8
  %35 = getelementptr inbounds nuw %struct._wmem_tree_node_t, ptr %34, i32 0, i32 4
  %36 = load ptr, ptr %35, align 8
  store ptr %36, ptr %4, align 8
  store i32 1, ptr %9, align 4
  br label %54

37:                                               ; preds = %24
  %38 = load i32, ptr %10, align 4
  %39 = icmp slt i32 %38, 0
  br i1 %39, label %40, label %44

40:                                               ; preds = %37
  %41 = load ptr, ptr %8, align 8
  %42 = getelementptr inbounds nuw %struct._wmem_tree_node_t, ptr %41, i32 0, i32 1
  %43 = load ptr, ptr %42, align 8
  store ptr %43, ptr %8, align 8
  br label %52

44:                                               ; preds = %37
  %45 = load i32, ptr %10, align 4
  %46 = icmp sgt i32 %45, 0
  br i1 %46, label %47, label %51

47:                                               ; preds = %44
  %48 = load ptr, ptr %8, align 8
  %49 = getelementptr inbounds nuw %struct._wmem_tree_node_t, ptr %48, i32 0, i32 2
  %50 = load ptr, ptr %49, align 8
  store ptr %50, ptr %8, align 8
  br label %51

51:                                               ; preds = %47, %44
  br label %52

52:                                               ; preds = %51, %40
  br label %53

53:                                               ; preds = %52
  store i32 0, ptr %9, align 4
  br label %54

54:                                               ; preds = %53, %33
  call void @llvm.lifetime.end.p0(i64 4, ptr %10) #6
  %55 = load i32, ptr %9, align 4
  switch i32 %55, label %58 [
    i32 0, label %56
  ]

56:                                               ; preds = %54
  br label %21, !llvm.loop !17

57:                                               ; preds = %21
  store ptr null, ptr %4, align 8
  store i32 1, ptr %9, align 4
  br label %58

58:                                               ; preds = %57, %54, %16
  call void @llvm.lifetime.end.p0(i64 8, ptr %8) #6
  %59 = load ptr, ptr %4, align 8
  ret ptr %59
}

; Function Attrs: null_pointer_is_valid sspstrong uwtable
define ptr @wmem_tree_lookup_string(ptr noundef %0, ptr noundef %1, i32 noundef %2) #0 {
  %4 = alloca ptr, align 8
  %5 = alloca ptr, align 8
  %6 = alloca i32, align 4
  %7 = alloca ptr, align 8
  store ptr %0, ptr %4, align 8
  store ptr %1, ptr %5, align 8
  store i32 %2, ptr %6, align 4
  call void @llvm.lifetime.start.p0(i64 8, ptr %7) #6
  %8 = load i32, ptr %6, align 4
  %9 = and i32 %8, 1
  %10 = icmp ne i32 %9, 0
  br i1 %10, label %11, label %12

11:                                               ; preds = %3
  store ptr @g_ascii_strcasecmp, ptr %7, align 8
  br label %13

12:                                               ; preds = %3
  store ptr @strcmp, ptr %7, align 8
  br label %13

13:                                               ; preds = %12, %11
  %14 = load ptr, ptr %4, align 8
  %15 = load ptr, ptr %5, align 8
  %16 = load ptr, ptr %7, align 8
  %17 = call ptr @wmem_tree_lookup(ptr noundef %14, ptr noundef %15, ptr noundef %16)
  call void @llvm.lifetime.end.p0(i64 8, ptr %7) #6
  ret ptr %17
}