; Function Attrs: null_pointer_is_valid sspstrong uwtable
define ptr @wmem_tree_lookup_string(ptr noundef readonly captures(address_is_null) %0, ptr noundef %1, i32 noundef %2) local_unnamed_addr #0 {
  %4 = and i32 %2, 1
  %.not = icmp eq i32 %4, 0
  %5 = icmp eq ptr %0, null
  %6 = icmp eq ptr %1, null
  %or.cond.i5 = or i1 %5, %6
  br i1 %.not, label %.split, label %.split4

.split4:                                          ; preds = %3
  br i1 %or.cond.i5, label %wmem_tree_lookup.exit, label %7

7:                                                ; preds = %.split4
  %8 = getelementptr inbounds nuw i8, ptr %0, i64 16
  %.01626.i = load ptr, ptr %8, align 8
  %.not27.i = icmp eq ptr %.01626.i, null
  br i1 %.not27.i, label %wmem_tree_lookup.exit, label %.lr.ph.i

.lr.ph.i:                                         ; preds = %7, %12
  %.01628.i = phi ptr [ %.016.i, %12 ], [ %.01626.i, %7 ]
  %9 = getelementptr inbounds nuw i8, ptr %.01628.i, i64 24
  %10 = load ptr, ptr %9, align 8
  %11 = tail call i32 @g_ascii_strcasecmp(ptr noundef %1, ptr noundef %10), !callees !18
  %.not22.i = icmp eq i32 %11, 0
  br i1 %.not22.i, label %wmem_tree_lookup.exit.sink.split, label %12

12:                                               ; preds = %.lr.ph.i
  %13 = icmp slt i32 %11, 0
  %.218.in.v.i = select i1 %13, i64 8, i64 16
  %.218.in.i = getelementptr inbounds nuw i8, ptr %.01628.i, i64 %.218.in.v.i
  %.016.i = load ptr, ptr %.218.in.i, align 8
  %.not.i = icmp eq ptr %.016.i, null
  br i1 %.not.i, label %wmem_tree_lookup.exit, label %.lr.ph.i, !llvm.loop !19

.split:                                           ; preds = %3
  br i1 %or.cond.i5, label %wmem_tree_lookup.exit, label %14

14:                                               ; preds = %.split
  %15 = getelementptr inbounds nuw i8, ptr %0, i64 16
  %.01626.i6 = load ptr, ptr %15, align 8
  %.not27.i7 = icmp eq ptr %.01626.i6, null
  br i1 %.not27.i7, label %wmem_tree_lookup.exit, label %.lr.ph.i8

.lr.ph.i8:                                        ; preds = %14, %19
  %.01628.i9 = phi ptr [ %.016.i13, %19 ], [ %.01626.i6, %14 ]
  %16 = getelementptr inbounds nuw i8, ptr %.01628.i9, i64 24
  %17 = load ptr, ptr %16, align 8
  %18 = tail call i32 @strcmp(ptr noundef %1, ptr noundef %17), !callees !18
  %.not22.i10 = icmp eq i32 %18, 0
  br i1 %.not22.i10, label %wmem_tree_lookup.exit.sink.split, label %19

19:                                               ; preds = %.lr.ph.i8
  %20 = icmp slt i32 %18, 0
  %.218.in.v.i11 = select i1 %20, i64 8, i64 16
  %.218.in.i12 = getelementptr inbounds nuw i8, ptr %.01628.i9, i64 %.218.in.v.i11
  %.016.i13 = load ptr, ptr %.218.in.i12, align 8
  %.not.i14 = icmp eq ptr %.016.i13, null
  br i1 %.not.i14, label %wmem_tree_lookup.exit, label %.lr.ph.i8, !llvm.loop !19

wmem_tree_lookup.exit.sink.split:                 ; preds = %.lr.ph.i, %.lr.ph.i8
  %.01628.i9.lcssa.sink = phi ptr [ %.01628.i9, %.lr.ph.i8 ], [ %.01628.i, %.lr.ph.i ]
  %21 = getelementptr inbounds nuw i8, ptr %.01628.i9.lcssa.sink, i64 32
  %22 = load ptr, ptr %21, align 8
  br label %wmem_tree_lookup.exit

wmem_tree_lookup.exit:                            ; preds = %12, %19, %wmem_tree_lookup.exit.sink.split, %14, %.split, %7, %.split4
  %phi.call = phi ptr [ null, %.split4 ], [ null, %7 ], [ null, %.split ], [ null, %14 ], [ %22, %wmem_tree_lookup.exit.sink.split ], [ null, %19 ], [ null, %12 ]
  ret ptr %phi.call
}